; Function Attrs: mustprogress nofree norecurse nosync nounwind willreturn memory(argmem: read) uwtable
define noundef range(i32 0, 202) i32 @_ZNK5boost9unit_test12test_results11result_codeEv(ptr nocapture noundef nonnull readonly align 8 dereferenceable(107) %0) local_unnamed_addr #5 align 2 {
  %2 = getelementptr inbounds nuw i8, ptr %0, i64 105
  %3 = load i8, ptr %2, align 1, !tbaa !13, !range !9, !noundef !10
  %4 = trunc nuw i8 %3 to i1
  %5 = getelementptr inbounds nuw i8, ptr %0, i64 56
  %6 = load i64, ptr %5, align 8
  %7 = icmp ne i64 %6, 0
  %or.cond.not.i = select i1 %4, i1 true, i1 %7
  %.phi.trans.insert = getelementptr inbounds nuw i8, ptr %0, i64 16
  %.pre = load i64, ptr %.phi.trans.insert, align 8, !tbaa !11
  %.phi.trans.insert6 = getelementptr inbounds nuw i8, ptr %0, i64 32
  %.pre7 = load i64, ptr %.phi.trans.insert6, align 8, !tbaa !11
  br i1 %or.cond.not.i, label %_ZNK5boost9unit_test12test_results6passedEv.exit.thread, label %8

8:                                                ; preds = %1
  %.not.i = icmp ugt i64 %.pre, %.pre7
  %9 = getelementptr inbounds nuw i8, ptr %0, i64 106
  %10 = load i8, ptr %9, align 2, !range !9
  %11 = trunc nuw i8 %10 to i1
  %or.cond6.i.not = select i1 %.not.i, i1 true, i1 %11
  %12 = getelementptr inbounds nuw i8, ptr %0, i64 80
  %13 = load i64, ptr %12, align 8
  %14 = icmp ne i64 %13, 0
  %or.cond9.i.not5 = select i1 %or.cond6.i.not, i1 true, i1 %14
  %15 = getelementptr inbounds nuw i8, ptr %0, i64 104
  %16 = load i8, ptr %15, align 8, !range !9
  %17 = trunc nuw i8 %16 to i1
  %or.cond.not = select i1 %or.cond9.i.not5, i1 true, i1 %17
  br i1 %or.cond.not, label %_ZNK5boost9unit_test12test_results6passedEv.exit.thread, label %27

_ZNK5boost9unit_test12test_results6passedEv.exit.thread: ; preds = %1, %8
  %18 = icmp ugt i64 %.pre, %.pre7
  %brmerge = or i1 %18, %4
  br i1 %brmerge, label %27, label %19

19:                                               ; preds = %_ZNK5boost9unit_test12test_results6passedEv.exit.thread
  %20 = getelementptr inbounds nuw i8, ptr %0, i64 106
  %21 = load i8, ptr %20, align 2, !tbaa !13, !range !9, !noundef !10
  %22 = trunc nuw i8 %21 to i1
  br i1 %22, label %27, label %23

23:                                               ; preds = %19
  %24 = getelementptr inbounds nuw i8, ptr %0, i64 80
  %25 = load i64, ptr %24, align 8, !tbaa !11
  %.not = icmp eq i64 %25, 0
  %26 = select i1 %.not, i32 200, i32 201
  br label %27

27:                                               ; preds = %_ZNK5boost9unit_test12test_results6passedEv.exit.thread, %8, %19, %23
  %28 = phi i32 [ 201, %19 ], [ 201, %_ZNK5boost9unit_test12test_results6passedEv.exit.thread ], [ %26, %23 ], [ 0, %8 ]
  ret i32 %28
}